; Function Attrs: mustprogress uwtable
define internal noundef zeroext i1 @"_ZNSt17_Function_handlerIFbmmRN7httplib8DataSinkEEZNS0_6Server19handle_file_requestERKNS0_7RequestERNS0_8ResponseEbE3$_0E9_M_invokeERKSt9_Any_dataOmSF_S2_"(ptr nocapture noundef nonnull readonly align 8 dereferenceable(16) %__functor, ptr nocapture noundef nonnull readonly align 8 dereferenceable(8) %__args, ptr nocapture noundef nonnull readonly align 8 dereferenceable(8) %__args1, ptr noundef nonnull align 8 dereferenceable(472) %__args3) #5 align 2 {
entry:
  %__args.addr.i.i.i.i = alloca ptr, align 8
  %__args.addr2.i.i.i.i = alloca i64, align 8
  %__functor.val = load ptr, ptr %__functor, align 8
  %call.val = load ptr, ptr %__functor.val, align 8
  %__args.val = load i64, ptr %__args, align 8
  %__args1.val = load i64, ptr %__args1, align 8
  %0 = getelementptr i8, ptr %call.val, i64 16
  %call.val.val = load ptr, ptr %0, align 8
  %add.ptr.i.i.i = getelementptr inbounds i8, ptr %call.val.val, i64 %__args.val
  call void @llvm.lifetime.start.p0(i64 8, ptr nonnull %__args.addr.i.i.i.i)
  call void @llvm.lifetime.start.p0(i64 8, ptr nonnull %__args.addr2.i.i.i.i)
  store ptr %add.ptr.i.i.i, ptr %__args.addr.i.i.i.i, align 8
  store i64 %__args1.val, ptr %__args.addr2.i.i.i.i, align 8
  %_M_manager.i.i.i.i.i = getelementptr inbounds i8, ptr %__args3, i64 16
  %1 = load ptr, ptr %_M_manager.i.i.i.i.i, align 8
  %tobool.not.i.i.i.i.i = icmp eq ptr %1, null
  br i1 %tobool.not.i.i.i.i.i, label %if.then.i.i.i.i, label %"_ZSt10__invoke_rIbRZN7httplib6Server19handle_file_requestERKNS0_7RequestERNS0_8ResponseEbE3$_0JmmRNS0_8DataSinkEEENSt9enable_ifIX16is_invocable_r_vIT_T0_DpT1_EESC_E4typeEOSD_DpOSE_.exit"

if.then.i.i.i.i:                                  ; preds = %entry
  tail call void @_ZSt25__throw_bad_function_callv() #41
  unreachable

"_ZSt10__invoke_rIbRZN7httplib6Server19handle_file_requestERKNS0_7RequestERNS0_8ResponseEbE3$_0JmmRNS0_8DataSinkEEENSt9enable_ifIX16is_invocable_r_vIT_T0_DpT1_EESC_E4typeEOSD_DpOSE_.exit": ; preds = %entry
  %_M_invoker.i.i.i.i = getelementptr inbounds i8, ptr %__args3, i64 24
  %2 = load ptr, ptr %_M_invoker.i.i.i.i, align 8
  %call4.i.i.i.i = call noundef zeroext i1 %2(ptr noundef nonnull align 8 dereferenceable(16) %__args3, ptr noundef nonnull align 8 dereferenceable(8) %__args.addr.i.i.i.i, ptr noundef nonnull align 8 dereferenceable(8) %__args.addr2.i.i.i.i)
  call void @llvm.lifetime.end.p0(i64 8, ptr nonnull %__args.addr.i.i.i.i)
  call void @llvm.lifetime.end.p0(i64 8, ptr nonnull %__args.addr2.i.i.i.i)
  ret i1 true
}